target datalayout = "e-m:e-p270:32:32-p271:32:32-p272:64:64-i64:64-i128:128-f80:128-n8:16:32:64-S128"
target triple = "x86_64-pc-linux-gnu"

@hf_fcs_iename = internal global i32 0, align 4
@hf_fcs_iedomainid = internal global i32 0, align 4

; Function Attrs: nounwind uwtable
define internal void @dissect_fcfcs_gdid(ptr noundef %0, ptr noundef %1, i32 noundef %2) #0 {
  %4 = alloca ptr, align 8
  %5 = alloca ptr, align 8
  %6 = alloca i32, align 4
  %7 = alloca i32, align 4
  store ptr %0, ptr %4, align 8
  store ptr %1, ptr %5, align 8
  store i32 %2, ptr %6, align 4
  store i32 16, ptr %7, align 4
  %8 = load ptr, ptr %5, align 8
  %9 = icmp ne ptr %8, null
  br i1 %9, label %10, label %27

10:                                               ; preds = %3
  %11 = load i32, ptr %6, align 4
  %12 = icmp ne i32 %11, 0
  br i1 %12, label %13, label %19

13:                                               ; preds = %10
  %14 = load ptr, ptr %5, align 8
  %15 = load i32, ptr @hf_fcs_iename, align 4
  %16 = load ptr, ptr %4, align 8
  %17 = load i32, ptr %7, align 4
  %18 = call ptr @proto_tree_add_item(ptr noundef %14, i32 noundef %15, ptr noundef %16, i32 noundef %17, i32 noundef 8, i32 noundef 0)
  br label %26

19:                                               ; preds = %10
  %20 = load ptr, ptr %5, align 8
  %21 = load i32, ptr @hf_fcs_iedomainid, align 4
  %22 = load ptr, ptr %4, align 8
  %23 = load i32, ptr %7, align 4
  %24 = add i32 %23, 1
  %25 = call ptr @proto_tree_add_item(ptr noundef %20, i32 noundef %21, ptr noundef %22, i32 noundef %24, i32 noundef 1, i32 noundef 0)
  br label %26

26:                                               ; preds = %19, %13
  br label %27

27:                                               ; preds = %26, %3
  ret void
}