; Function Attrs: nounwind uwtable
define internal fastcc void @dissect_fcfcs_gdid(ptr noundef %0, ptr noundef %1, i32 noundef range(i32 0, 2) %2) unnamed_addr #0 {
  %.not = icmp eq ptr %1, null
  br i1 %.not, label %11, label %4

4:                                                ; preds = %3
  %.not7 = icmp eq i32 %2, 0
  br i1 %.not7, label %8, label %5

5:                                                ; preds = %4
  %6 = load i32, ptr @hf_fcs_iename, align 4
  %7 = tail call ptr @proto_tree_add_item(ptr noundef nonnull %1, i32 noundef %6, ptr noundef %0, i32 noundef 16, i32 noundef 8, i32 noundef 0) #4
  br label %11

8:                                                ; preds = %4
  %9 = load i32, ptr @hf_fcs_iedomainid, align 4
  %10 = tail call ptr @proto_tree_add_item(ptr noundef nonnull %1, i32 noundef %9, ptr noundef %0, i32 noundef 17, i32 noundef 1, i32 noundef 0) #4
  br label %11

11:                                               ; preds = %5, %8, %3
  ret void
}